target datalayout = "e-m:e-p270:32:32-p271:32:32-p272:64:64-i64:64-i128:128-f80:128-n8:16:32:64-S128"
target triple = "x86_64-pc-linux-gnu"

%struct._dcerpc_info = type { ptr, i32, i64, i8, i8, i8, i32, i32, i32, i32, i32, i32, i32, i32, ptr, ptr, ptr, ptr, %struct.anon }
%struct.anon = type { i8, ptr, ptr, ptr, i8 }

@hf_fileexp_l_end_pos = internal global i32 0, align 4
@hf_fileexp_l_end_pos_ext = internal global i32 0, align 4
@hf_fileexp_l_fstype = internal global i32 0, align 4
@hf_fileexp_l_pid = internal global i32 0, align 4
@hf_fileexp_l_start_pos = internal global i32 0, align 4
@hf_fileexp_l_start_pos_ext = internal global i32 0, align 4
@hf_fileexp_l_sysid = internal global i32 0, align 4
@hf_fileexp_l_type = internal global i32 0, align 4
@hf_fileexp_l_whence = internal global i32 0, align 4
@ett_fileexp_afsRecordLock = internal global i32 0, align 4
@.str.470 = private unnamed_addr constant [15 x i8] c"afsRecordLock:\00", align 1

; Function Attrs: null_pointer_is_valid sspstrong uwtable
define internal i32 @dissect_afsRecordLock(ptr noundef %0, i32 noundef %1, ptr noundef %2, ptr noundef %3, ptr noundef %4, ptr noundef %5) #0 {
  %7 = alloca i32, align 4
  %8 = alloca ptr, align 8
  %9 = alloca i32, align 4
  %10 = alloca ptr, align 8
  %11 = alloca ptr, align 8
  %12 = alloca ptr, align 8
  %13 = alloca ptr, align 8
  %14 = alloca ptr, align 8
  %15 = alloca ptr, align 8
  %16 = alloca i32, align 4
  %17 = alloca i16, align 2
  %18 = alloca i16, align 2
  %19 = alloca i32, align 4
  %20 = alloca i32, align 4
  %21 = alloca i32, align 4
  %22 = alloca i32, align 4
  %23 = alloca i32, align 4
  %24 = alloca i32, align 4
  %25 = alloca i32, align 4
  %26 = alloca i32, align 4
  store ptr %0, ptr %8, align 8
  store i32 %1, ptr %9, align 4
  store ptr %2, ptr %10, align 8
  store ptr %3, ptr %11, align 8
  store ptr %4, ptr %12, align 8
  store ptr %5, ptr %13, align 8
  call void @llvm.lifetime.start.p0(i64 8, ptr %14) #4
  store ptr null, ptr %14, align 8
  call void @llvm.lifetime.start.p0(i64 8, ptr %15) #4
  store ptr null, ptr %15, align 8
  call void @llvm.lifetime.start.p0(i64 4, ptr %16) #4
  %27 = load i32, ptr %9, align 4
  store i32 %27, ptr %16, align 4
  call void @llvm.lifetime.start.p0(i64 2, ptr %17) #4
  call void @llvm.lifetime.start.p0(i64 2, ptr %18) #4
  call void @llvm.lifetime.start.p0(i64 4, ptr %19) #4
  call void @llvm.lifetime.start.p0(i64 4, ptr %20) #4
  call void @llvm.lifetime.start.p0(i64 4, ptr %21) #4
  call void @llvm.lifetime.start.p0(i64 4, ptr %22) #4
  call void @llvm.lifetime.start.p0(i64 4, ptr %23) #4
  call void @llvm.lifetime.start.p0(i64 4, ptr %24) #4
  call void @llvm.lifetime.start.p0(i64 4, ptr %25) #4
  %28 = load ptr, ptr %12, align 8
  %29 = getelementptr inbounds nuw %struct._dcerpc_info, ptr %28, i32 0, i32 4
  %30 = load i8, ptr %29, align 1, !range !6, !noundef !7
  %31 = trunc i8 %30 to i1
  br i1 %31, label %32, label %34

32:                                               ; preds = %6
  %33 = load i32, ptr %9, align 4
  store i32 %33, ptr %7, align 4
  store i32 1, ptr %26, align 4
  br label %121

34:                                               ; preds = %6
  %35 = load ptr, ptr %11, align 8
  %36 = icmp ne ptr %35, null
  br i1 %36, label %37, label %43

37:                                               ; preds = %34
  %38 = load ptr, ptr %11, align 8
  %39 = load ptr, ptr %8, align 8
  %40 = load i32, ptr %9, align 4
  %41 = load i32, ptr @ett_fileexp_afsRecordLock, align 4
  %42 = call ptr @proto_tree_add_subtree(ptr noundef %38, ptr noundef %39, i32 noundef %40, i32 noundef -1, i32 noundef %41, ptr noundef %14, ptr noundef @.str.470)
  store ptr %42, ptr %15, align 8
  br label %43

43:                                               ; preds = %37, %34
  %44 = load ptr, ptr %8, align 8
  %45 = load i32, ptr %9, align 4
  %46 = load ptr, ptr %10, align 8
  %47 = load ptr, ptr %15, align 8
  %48 = load ptr, ptr %12, align 8
  %49 = load ptr, ptr %13, align 8
  %50 = load i32, ptr @hf_fileexp_l_type, align 4
  %51 = call i32 @dissect_ndr_uint16(ptr noundef %44, i32 noundef %45, ptr noundef %46, ptr noundef %47, ptr noundef %48, ptr noundef %49, i32 noundef %50, ptr noundef %17)
  store i32 %51, ptr %9, align 4
  %52 = load ptr, ptr %8, align 8
  %53 = load i32, ptr %9, align 4
  %54 = load ptr, ptr %10, align 8
  %55 = load ptr, ptr %15, align 8
  %56 = load ptr, ptr %12, align 8
  %57 = load ptr, ptr %13, align 8
  %58 = load i32, ptr @hf_fileexp_l_whence, align 4
  %59 = call i32 @dissect_ndr_uint16(ptr noundef %52, i32 noundef %53, ptr noundef %54, ptr noundef %55, ptr noundef %56, ptr noundef %57, i32 noundef %58, ptr noundef %18)
  store i32 %59, ptr %9, align 4
  %60 = load ptr, ptr %8, align 8
  %61 = load i32, ptr %9, align 4
  %62 = load ptr, ptr %10, align 8
  %63 = load ptr, ptr %15, align 8
  %64 = load ptr, ptr %12, align 8
  %65 = load ptr, ptr %13, align 8
  %66 = load i32, ptr @hf_fileexp_l_start_pos, align 4
  %67 = call i32 @dissect_ndr_uint32(ptr noundef %60, i32 noundef %61, ptr noundef %62, ptr noundef %63, ptr noundef %64, ptr noundef %65, i32 noundef %66, ptr noundef %19)
  store i32 %67, ptr %9, align 4
  %68 = load ptr, ptr %8, align 8
  %69 = load i32, ptr %9, align 4
  %70 = load ptr, ptr %10, align 8
  %71 = load ptr, ptr %15, align 8
  %72 = load ptr, ptr %12, align 8
  %73 = load ptr, ptr %13, align 8
  %74 = load i32, ptr @hf_fileexp_l_end_pos, align 4
  %75 = call i32 @dissect_ndr_uint32(ptr noundef %68, i32 noundef %69, ptr noundef %70, ptr noundef %71, ptr noundef %72, ptr noundef %73, i32 noundef %74, ptr noundef %20)
  store i32 %75, ptr %9, align 4
  %76 = load ptr, ptr %8, align 8
  %77 = load i32, ptr %9, align 4
  %78 = load ptr, ptr %10, align 8
  %79 = load ptr, ptr %15, align 8
  %80 = load ptr, ptr %12, align 8
  %81 = load ptr, ptr %13, align 8
  %82 = load i32, ptr @hf_fileexp_l_pid, align 4
  %83 = call i32 @dissect_ndr_uint32(ptr noundef %76, i32 noundef %77, ptr noundef %78, ptr noundef %79, ptr noundef %80, ptr noundef %81, i32 noundef %82, ptr noundef %21)
  store i32 %83, ptr %9, align 4
  %84 = load ptr, ptr %8, align 8
  %85 = load i32, ptr %9, align 4
  %86 = load ptr, ptr %10, align 8
  %87 = load ptr, ptr %15, align 8
  %88 = load ptr, ptr %12, align 8
  %89 = load ptr, ptr %13, align 8
  %90 = load i32, ptr @hf_fileexp_l_sysid, align 4
  %91 = call i32 @dissect_ndr_uint32(ptr noundef %84, i32 noundef %85, ptr noundef %86, ptr noundef %87, ptr noundef %88, ptr noundef %89, i32 noundef %90, ptr noundef %22)
  store i32 %91, ptr %9, align 4
  %92 = load ptr, ptr %8, align 8
  %93 = load i32, ptr %9, align 4
  %94 = load ptr, ptr %10, align 8
  %95 = load ptr, ptr %15, align 8
  %96 = load ptr, ptr %12, align 8
  %97 = load ptr, ptr %13, align 8
  %98 = load i32, ptr @hf_fileexp_l_fstype, align 4
  %99 = call i32 @dissect_ndr_uint32(ptr noundef %92, i32 noundef %93, ptr noundef %94, ptr noundef %95, ptr noundef %96, ptr noundef %97, i32 noundef %98, ptr noundef %23)
  store i32 %99, ptr %9, align 4
  %100 = load ptr, ptr %8, align 8
  %101 = load i32, ptr %9, align 4
  %102 = load ptr, ptr %10, align 8
  %103 = load ptr, ptr %15, align 8
  %104 = load ptr, ptr %12, align 8
  %105 = load ptr, ptr %13, align 8
  %106 = load i32, ptr @hf_fileexp_l_start_pos_ext, align 4
  %107 = call i32 @dissect_ndr_uint32(ptr noundef %100, i32 noundef %101, ptr noundef %102, ptr noundef %103, ptr noundef %104, ptr noundef %105, i32 noundef %106, ptr noundef %24)
  store i32 %107, ptr %9, align 4
  %108 = load ptr, ptr %8, align 8
  %109 = load i32, ptr %9, align 4
  %110 = load ptr, ptr %10, align 8
  %111 = load ptr, ptr %15, align 8
  %112 = load ptr, ptr %12, align 8
  %113 = load ptr, ptr %13, align 8
  %114 = load i32, ptr @hf_fileexp_l_end_pos_ext, align 4
  %115 = call i32 @dissect_ndr_uint32(ptr noundef %108, i32 noundef %109, ptr noundef %110, ptr noundef %111, ptr noundef %112, ptr noundef %113, i32 noundef %114, ptr noundef %25)
  store i32 %115, ptr %9, align 4
  %116 = load ptr, ptr %14, align 8
  %117 = load i32, ptr %9, align 4
  %118 = load i32, ptr %16, align 4
  %119 = sub i32 %117, %118
  call void @proto_item_set_len(ptr noundef %116, i32 noundef %119)
  %120 = load i32, ptr %9, align 4
  store i32 %120, ptr %7, align 4
  store i32 1, ptr %26, align 4
  br label %121

121:                                              ; preds = %43, %32
  call void @llvm.lifetime.end.p0(i64 4, ptr %25) #4
  call void @llvm.lifetime.end.p0(i64 4, ptr %24) #4
  call void @llvm.lifetime.end.p0(i64 4, ptr %23) #4
  call void @llvm.lifetime.end.p0(i64 4, ptr %22) #4
  call void @llvm.lifetime.end.p0(i64 4, ptr %21) #4
  call void @llvm.lifetime.end.p0(i64 4, ptr %20) #4
  call void @llvm.lifetime.end.p0(i64 4, ptr %19) #4
  call void @llvm.lifetime.end.p0(i64 2, ptr %18) #4
  call void @llvm.lifetime.end.p0(i64 2, ptr %17) #4
  call void @llvm.lifetime.end.p0(i64 4, ptr %16) #4
  call void @llvm.lifetime.end.p0(i64 8, ptr %15) #4
  call void @llvm.lifetime.end.p0(i64 8, ptr %14) #4
  %122 = load i32, ptr %7, align 4
  ret i32 %122
}