; Function Attrs: null_pointer_is_valid sspstrong uwtable
define internal i32 @dissect_afsRecordLock(ptr noundef %0, i32 noundef %1, ptr noundef %2, ptr noundef %3, ptr noundef %4, ptr noundef %5) #0 {
  %7 = alloca ptr, align 8
  %8 = alloca i16, align 2
  %9 = alloca i16, align 2
  %10 = alloca i32, align 4
  %11 = alloca i32, align 4
  %12 = alloca i32, align 4
  %13 = alloca i32, align 4
  %14 = alloca i32, align 4
  %15 = alloca i32, align 4
  %16 = alloca i32, align 4
  call void @llvm.lifetime.start.p0(i64 8, ptr nonnull %7) #4
  store ptr null, ptr %7, align 8
  call void @llvm.lifetime.start.p0(i64 2, ptr nonnull %8) #4
  call void @llvm.lifetime.start.p0(i64 2, ptr nonnull %9) #4
  call void @llvm.lifetime.start.p0(i64 4, ptr nonnull %10) #4
  call void @llvm.lifetime.start.p0(i64 4, ptr nonnull %11) #4
  call void @llvm.lifetime.start.p0(i64 4, ptr nonnull %12) #4
  call void @llvm.lifetime.start.p0(i64 4, ptr nonnull %13) #4
  call void @llvm.lifetime.start.p0(i64 4, ptr nonnull %14) #4
  call void @llvm.lifetime.start.p0(i64 4, ptr nonnull %15) #4
  call void @llvm.lifetime.start.p0(i64 4, ptr nonnull %16) #4
  %17 = getelementptr inbounds nuw i8, ptr %4, i64 25
  %18 = load i8, ptr %17, align 1, !range !6, !noundef !7
  %19 = trunc nuw i8 %18 to i1
  br i1 %19, label %45, label %20

20:                                               ; preds = %6
  %.not = icmp eq ptr %3, null
  br i1 %.not, label %24, label %21

21:                                               ; preds = %20
  %22 = load i32, ptr @ett_fileexp_afsRecordLock, align 4
  %23 = call ptr @proto_tree_add_subtree(ptr noundef nonnull %3, ptr noundef %0, i32 noundef %1, i32 noundef -1, i32 noundef %22, ptr noundef nonnull %7, ptr noundef nonnull @.str.470)
  br label %24

24:                                               ; preds = %21, %20
  %.064 = phi ptr [ %23, %21 ], [ null, %20 ]
  %25 = load i32, ptr @hf_fileexp_l_type, align 4
  %26 = call i32 @dissect_ndr_uint16(ptr noundef %0, i32 noundef %1, ptr noundef %2, ptr noundef %.064, ptr noundef %4, ptr noundef %5, i32 noundef %25, ptr noundef nonnull %8)
  %27 = load i32, ptr @hf_fileexp_l_whence, align 4
  %28 = call i32 @dissect_ndr_uint16(ptr noundef %0, i32 noundef %26, ptr noundef %2, ptr noundef %.064, ptr noundef %4, ptr noundef %5, i32 noundef %27, ptr noundef nonnull %9)
  %29 = load i32, ptr @hf_fileexp_l_start_pos, align 4
  %30 = call i32 @dissect_ndr_uint32(ptr noundef %0, i32 noundef %28, ptr noundef %2, ptr noundef %.064, ptr noundef %4, ptr noundef %5, i32 noundef %29, ptr noundef nonnull %10)
  %31 = load i32, ptr @hf_fileexp_l_end_pos, align 4
  %32 = call i32 @dissect_ndr_uint32(ptr noundef %0, i32 noundef %30, ptr noundef %2, ptr noundef %.064, ptr noundef %4, ptr noundef %5, i32 noundef %31, ptr noundef nonnull %11)
  %33 = load i32, ptr @hf_fileexp_l_pid, align 4
  %34 = call i32 @dissect_ndr_uint32(ptr noundef %0, i32 noundef %32, ptr noundef %2, ptr noundef %.064, ptr noundef %4, ptr noundef %5, i32 noundef %33, ptr noundef nonnull %12)
  %35 = load i32, ptr @hf_fileexp_l_sysid, align 4
  %36 = call i32 @dissect_ndr_uint32(ptr noundef %0, i32 noundef %34, ptr noundef %2, ptr noundef %.064, ptr noundef %4, ptr noundef %5, i32 noundef %35, ptr noundef nonnull %13)
  %37 = load i32, ptr @hf_fileexp_l_fstype, align 4
  %38 = call i32 @dissect_ndr_uint32(ptr noundef %0, i32 noundef %36, ptr noundef %2, ptr noundef %.064, ptr noundef %4, ptr noundef %5, i32 noundef %37, ptr noundef nonnull %14)
  %39 = load i32, ptr @hf_fileexp_l_start_pos_ext, align 4
  %40 = call i32 @dissect_ndr_uint32(ptr noundef %0, i32 noundef %38, ptr noundef %2, ptr noundef %.064, ptr noundef %4, ptr noundef %5, i32 noundef %39, ptr noundef nonnull %15)
  %41 = load i32, ptr @hf_fileexp_l_end_pos_ext, align 4
  %42 = call i32 @dissect_ndr_uint32(ptr noundef %0, i32 noundef %40, ptr noundef %2, ptr noundef %.064, ptr noundef %4, ptr noundef %5, i32 noundef %41, ptr noundef nonnull %16)
  %43 = load ptr, ptr %7, align 8
  %44 = sub i32 %42, %1
  call void @proto_item_set_len(ptr noundef %43, i32 noundef %44)
  br label %45

45:                                               ; preds = %6, %24
  %.0 = phi i32 [ %42, %24 ], [ %1, %6 ]
  call void @llvm.lifetime.end.p0(i64 4, ptr nonnull %16) #4
  call void @llvm.lifetime.end.p0(i64 4, ptr nonnull %15) #4
  call void @llvm.lifetime.end.p0(i64 4, ptr nonnull %14) #4
  call void @llvm.lifetime.end.p0(i64 4, ptr nonnull %13) #4
  call void @llvm.lifetime.end.p0(i64 4, ptr nonnull %12) #4
  call void @llvm.lifetime.end.p0(i64 4, ptr nonnull %11) #4
  call void @llvm.lifetime.end.p0(i64 4, ptr nonnull %10) #4
  call void @llvm.lifetime.end.p0(i64 2, ptr nonnull %9) #4
  call void @llvm.lifetime.end.p0(i64 2, ptr nonnull %8) #4
  call void @llvm.lifetime.end.p0(i64 8, ptr nonnull %7) #4
  ret i32 %.0
}